target datalayout = "e-m:e-p270:32:32-p271:32:32-p272:64:64-i64:64-i128:128-f80:128-n8:16:32:64-S128"
target triple = "x86_64-pc-linux-gnu"

%"class.net::TcpCubicSenderBase" = type <{ %"class.net::SendAlgorithmInterface", %"class.net::HybridSlowStart", %"class.net::PrrSender", ptr, ptr, i8, [3 x i8], i32, i64, i64, i64, i8, i8, i8, i8, i8, [3 x i8] }>
%"class.net::SendAlgorithmInterface" = type { ptr }
%"class.net::HybridSlowStart" = type { i8, i32, i64, i64, i32, %"class.net::QuicTime::Delta" }
%"class.net::QuicTime::Delta" = type { %"class.base::TimeDelta", i64 }
%"class.base::TimeDelta" = type { i64 }
%"class.net::PrrSender" = type { i64, i64, i64, i64 }
%"class.net::QuicBandwidth" = type { i64 }
%"class.net::QuicTime" = type { i64 }
%"class.logging::CheckOpResult" = type { ptr }
%"class.logging::LogMessage" = type <{ i32, [4 x i8], %"class.std::__cxx11::basic_ostringstream", i64, ptr, i32, [4 x i8] }>
%"class.std::__cxx11::basic_ostringstream" = type { %"class.std::basic_ostream.base", %"class.std::__cxx11::basic_stringbuf", %"class.std::basic_ios" }
%"class.std::basic_ostream.base" = type { ptr }
%"class.std::__cxx11::basic_stringbuf" = type { %"class.std::basic_streambuf", i32, %"class.std::__cxx11::basic_string" }
%"class.std::basic_streambuf" = type { ptr, ptr, ptr, ptr, ptr, ptr, ptr, %"class.std::locale" }
%"class.std::locale" = type { ptr }
%"class.std::__cxx11::basic_string" = type { %"struct.std::__cxx11::basic_string<char>::_Alloc_hider", i64, %union.anon }
%"struct.std::__cxx11::basic_string<char>::_Alloc_hider" = type { ptr }
%union.anon = type { i64, [8 x i8] }
%"class.std::basic_ios" = type { %"class.std::ios_base", ptr, i8, i8, ptr, ptr, ptr, ptr }
%"class.std::ios_base" = type { ptr, i64, i64, i32, i32, i32, ptr, %"struct.std::ios_base::_Words", [8 x %"struct.std::ios_base::_Words"], i32, ptr, %"class.std::locale" }
%"struct.std::ios_base::_Words" = type { ptr, i64 }
%"struct.net::QuicConnectionStats" = type { i64, i64, i64, i64, i64, i64, i64, i64, i64, i64, i64, i64, i64, i64, i64, i64, i64, i64, i64, i64, i64, i64, i64, i64, i64, %"class.net::QuicBandwidth", i64, i64, i64, i32, %"class.net::QuicTime" }

@.str = private unnamed_addr constant [155 x i8] c"generated/home/dtcxzyw/WorkSpace/Projects/compilers/llvm-opt-benchmark/bench/libquic/libquic/src/net/quic/core/congestion_control/tcp_cubic_sender_base.cc\00", align 1

; Function Attrs: mustprogress nounwind uwtable
define linkonce_odr noundef nonnull align 8 dereferenceable(8) ptr @_ZN7logging10LogMessage6streamEv(ptr noundef nonnull align 8 dereferenceable(404) %0) #3 comdat align 2 {
  %2 = alloca ptr, align 8
  store ptr %0, ptr %2, align 8, !tbaa !96
  %3 = load ptr, ptr %2, align 8
  %4 = getelementptr inbounds nuw %"class.logging::LogMessage", ptr %3, i32 0, i32 2
  ret ptr %4
}

; Function Attrs: mustprogress nounwind uwtable
define linkonce_odr noundef ptr @_ZN7logging13CheckOpResult7messageB5cxx11Ev(ptr noundef nonnull align 8 dereferenceable(8) %0) #3 comdat align 2 {
  %2 = alloca ptr, align 8
  store ptr %0, ptr %2, align 8, !tbaa !91
  %3 = load ptr, ptr %2, align 8
  %4 = getelementptr inbounds nuw %"class.logging::CheckOpResult", ptr %3, i32 0, i32 0
  %5 = load ptr, ptr %4, align 8, !tbaa !94
  ret ptr %5
}

; Function Attrs: mustprogress nounwind uwtable
define linkonce_odr noundef zeroext i1 @_ZNK7logging13CheckOpResultcvbEv(ptr noundef nonnull align 8 dereferenceable(8) %0) #3 comdat align 2 {
  %2 = alloca ptr, align 8
  store ptr %0, ptr %2, align 8, !tbaa !91
  %3 = load ptr, ptr %2, align 8
  %4 = getelementptr inbounds nuw %"class.logging::CheckOpResult", ptr %3, i32 0, i32 0
  %5 = load ptr, ptr %4, align 8, !tbaa !94
  %6 = icmp ne ptr %5, null
  %7 = xor i1 %6, true
  ret i1 %7
}

; Function Attrs: mustprogress nounwind uwtable
define linkonce_odr void @_ZN7logging13CheckOpResultC2EPNSt7__cxx1112basic_stringIcSt11char_traitsIcESaIcEEE(ptr noundef nonnull align 8 dereferenceable(8) %0, ptr noundef %1) unnamed_addr #3 comdat align 2 {
  %3 = alloca ptr, align 8
  %4 = alloca ptr, align 8
  store ptr %0, ptr %3, align 8, !tbaa !91
  store ptr %1, ptr %4, align 8, !tbaa !93
  %5 = load ptr, ptr %3, align 8
  %6 = getelementptr inbounds nuw %"class.logging::CheckOpResult", ptr %5, i32 0, i32 0
  %7 = load ptr, ptr %4, align 8, !tbaa !93
  store ptr %7, ptr %6, align 8, !tbaa !94
  ret void
}

; Function Attrs: mustprogress uwtable
define noundef zeroext i1 @_ZN3net18TcpCubicSenderBase12OnPacketSentENS_8QuicTimeEmmmNS_22HasRetransmittableDataE(ptr noundef nonnull align 8 dereferenceable(141) %0, i64 %1, i64 noundef %2, i64 noundef %3, i64 noundef %4, i8 noundef signext %5) unnamed_addr #0 align 2 personality ptr @__gxx_personality_v0 {
  %7 = alloca i1, align 1
  %8 = alloca %"class.net::QuicTime", align 8
  %9 = alloca ptr, align 8
  %10 = alloca i64, align 8
  %11 = alloca i64, align 8
  %12 = alloca i64, align 8
  %13 = alloca i8, align 1
  %14 = alloca %"class.logging::CheckOpResult", align 8
  %15 = alloca %"class.logging::LogMessage", align 8
  %16 = alloca ptr, align 8
  %17 = alloca i32, align 4
  %18 = getelementptr inbounds nuw %"class.net::QuicTime", ptr %8, i32 0, i32 0
  store i64 %1, ptr %18, align 8
  store ptr %0, ptr %9, align 8, !tbaa !3
  store i64 %2, ptr %10, align 8, !tbaa !56
  store i64 %3, ptr %11, align 8, !tbaa !56
  store i64 %4, ptr %12, align 8, !tbaa !56
  store i8 %5, ptr %13, align 1, !tbaa !85
  %19 = load ptr, ptr %9, align 8
  %20 = load ptr, ptr %19, align 8, !tbaa !16
  %21 = getelementptr inbounds ptr, ptr %20, i64 13
  %22 = load ptr, ptr %21, align 8
  %23 = call noundef zeroext i1 %22(ptr noundef nonnull align 8 dereferenceable(141) %19)
  br i1 %23, label %24, label %30

24:                                               ; preds = %6
  %25 = getelementptr inbounds nuw %"class.net::TcpCubicSenderBase", ptr %19, i32 0, i32 4
  %26 = load ptr, ptr %25, align 8, !tbaa !28
  %27 = getelementptr inbounds nuw %"struct.net::QuicConnectionStats", ptr %26, i32 0, i32 13
  %28 = load i64, ptr %27, align 8, !tbaa !87
  %29 = add i64 %28, 1
  store i64 %29, ptr %27, align 8, !tbaa !87
  br label %30

30:                                               ; preds = %24, %6
  %31 = load i8, ptr %13, align 1, !tbaa !85
  %32 = sext i8 %31 to i32
  %33 = icmp ne i32 %32, 1
  br i1 %33, label %34, label %35

34:                                               ; preds = %30
  store i1 false, ptr %7, align 1
  br label %59

35:                                               ; preds = %30
  %36 = load ptr, ptr %19, align 8, !tbaa !16
  %37 = getelementptr inbounds ptr, ptr %36, i64 14
  %38 = load ptr, ptr %37, align 8
  %39 = call noundef zeroext i1 %38(ptr noundef nonnull align 8 dereferenceable(141) %19)
  br i1 %39, label %40, label %43

40:                                               ; preds = %35
  %41 = getelementptr inbounds nuw %"class.net::TcpCubicSenderBase", ptr %19, i32 0, i32 2
  %42 = load i64, ptr %12, align 8, !tbaa !56
  call void @_ZN3net9PrrSender12OnPacketSentEm(ptr noundef nonnull align 8 dereferenceable(32) %41, i64 noundef %42)
  br label %43

43:                                               ; preds = %40, %35
  call void @llvm.lifetime.start.p0(i64 8, ptr %14) #13
  call void @_ZN7logging13CheckOpResultC2EPNSt7__cxx1112basic_stringIcSt11char_traitsIcESaIcEEE(ptr noundef nonnull align 8 dereferenceable(8) %14, ptr noundef null)
  %44 = call noundef zeroext i1 @_ZNK7logging13CheckOpResultcvbEv(ptr noundef nonnull align 8 dereferenceable(8) %14)
  br i1 %44, label %45, label %46

45:                                               ; preds = %43
  br label %54

46:                                               ; preds = %43
  call void @llvm.lifetime.start.p0(i64 408, ptr %15) #13
  %47 = call noundef ptr @_ZN7logging13CheckOpResult7messageB5cxx11Ev(ptr noundef nonnull align 8 dereferenceable(8) %14)
  call void @_ZN7logging10LogMessageC1EPKciiPNSt7__cxx1112basic_stringIcSt11char_traitsIcESaIcEEE(ptr noundef nonnull align 8 dereferenceable(404) %15, ptr noundef @.str, i32 noundef 186, i32 noundef 0, ptr noundef %47)
  %48 = invoke noundef nonnull align 8 dereferenceable(8) ptr @_ZN7logging10LogMessage6streamEv(ptr noundef nonnull align 8 dereferenceable(404) %15)
          to label %49 unwind label %50

49:                                               ; preds = %46
  call void @_ZN7logging10LogMessageD1Ev(ptr noundef nonnull align 8 dereferenceable(404) %15) #13
  call void @llvm.lifetime.end.p0(i64 408, ptr %15) #13
  br label %54

50:                                               ; preds = %46
  %51 = landingpad { ptr, i32 }
          cleanup
  %52 = extractvalue { ptr, i32 } %51, 0
  store ptr %52, ptr %16, align 8
  %53 = extractvalue { ptr, i32 } %51, 1
  store i32 %53, ptr %17, align 4
  call void @_ZN7logging10LogMessageD1Ev(ptr noundef nonnull align 8 dereferenceable(404) %15) #13
  call void @llvm.lifetime.end.p0(i64 408, ptr %15) #13
  call void @llvm.lifetime.end.p0(i64 8, ptr %14) #13
  br label %61

54:                                               ; preds = %49, %45
  call void @llvm.lifetime.end.p0(i64 8, ptr %14) #13
  %55 = load i64, ptr %11, align 8, !tbaa !56
  %56 = getelementptr inbounds nuw %"class.net::TcpCubicSenderBase", ptr %19, i32 0, i32 8
  store i64 %55, ptr %56, align 8, !tbaa !33
  %57 = getelementptr inbounds nuw %"class.net::TcpCubicSenderBase", ptr %19, i32 0, i32 1
  %58 = load i64, ptr %11, align 8, !tbaa !56
  call void @_ZN3net15HybridSlowStart12OnPacketSentEm(ptr noundef nonnull align 8 dereferenceable(48) %57, i64 noundef %58)
  store i1 true, ptr %7, align 1
  br label %59

59:                                               ; preds = %54, %34
  %60 = load i1, ptr %7, align 1
  ret i1 %60

61:                                               ; preds = %50
  %62 = load ptr, ptr %16, align 8
  %63 = load i32, ptr %17, align 4
  %64 = insertvalue { ptr, i32 } poison, ptr %62, 0
  %65 = insertvalue { ptr, i32 } %64, i32 %63, 1
  resume { ptr, i32 } %65
}