; Function Attrs: mustprogress uwtable
define noundef zeroext i1 @_ZN3net18TcpCubicSenderBase12OnPacketSentENS_8QuicTimeEmmmNS_22HasRetransmittableDataE(ptr noundef nonnull align 8 dereferenceable(141) %0, i64 %1, i64 %2, i64 noundef %3, i64 noundef %4, i8 noundef signext %5) unnamed_addr #0 align 2 personality ptr @__gxx_personality_v0 {
  %7 = load ptr, ptr %0, align 8, !tbaa !3
  %8 = getelementptr inbounds nuw i8, ptr %7, i64 104
  %9 = load ptr, ptr %8, align 8
  %10 = tail call noundef zeroext i1 %9(ptr noundef nonnull align 8 dereferenceable(141) %0)
  br i1 %10, label %11, label %17

11:                                               ; preds = %6
  %12 = getelementptr inbounds nuw i8, ptr %0, i64 96
  %13 = load ptr, ptr %12, align 8, !tbaa !21
  %14 = getelementptr inbounds nuw i8, ptr %13, i64 104
  %15 = load i64, ptr %14, align 8, !tbaa !50
  %16 = add i64 %15, 1
  store i64 %16, ptr %14, align 8, !tbaa !50
  br label %17

17:                                               ; preds = %11, %6
  %.not = icmp eq i8 %5, 1
  br i1 %.not, label %18, label %28

18:                                               ; preds = %17
  %19 = load ptr, ptr %0, align 8, !tbaa !3
  %20 = getelementptr inbounds nuw i8, ptr %19, i64 112
  %21 = load ptr, ptr %20, align 8
  %22 = tail call noundef zeroext i1 %21(ptr noundef nonnull align 8 dereferenceable(141) %0)
  br i1 %22, label %23, label %25

23:                                               ; preds = %18
  %24 = getelementptr inbounds nuw i8, ptr %0, i64 56
  tail call void @_ZN3net9PrrSender12OnPacketSentEm(ptr noundef nonnull align 8 dereferenceable(32) %24, i64 noundef %4)
  br label %25

25:                                               ; preds = %18, %23
  %26 = getelementptr inbounds nuw i8, ptr %0, i64 112
  store i64 %3, ptr %26, align 8, !tbaa !54
  %27 = getelementptr inbounds nuw i8, ptr %0, i64 8
  tail call void @_ZN3net15HybridSlowStart12OnPacketSentEm(ptr noundef nonnull align 8 dereferenceable(48) %27, i64 noundef %3)
  br label %28

28:                                               ; preds = %17, %25
  ret i1 %.not
}